target datalayout = "e-m:e-p270:32:32-p271:32:32-p272:64:64-i64:64-i128:128-f80:128-n8:16:32:64-S128"
target triple = "x86_64-unknown-linux-gnu"

%"struct.std::_Vector_base.17" = type { %"struct.std::_Vector_base<const char *, std::allocator<const char *>>::_Vector_impl" }
%"struct.std::_Vector_base<const char *, std::allocator<const char *>>::_Vector_impl" = type { %"struct.std::_Vector_base<const char *, std::allocator<const char *>>::_Vector_impl_data" }
%"struct.std::_Vector_base<const char *, std::allocator<const char *>>::_Vector_impl_data" = type { ptr, ptr, ptr }
%"class.std::__cxx11::basic_string" = type { %"struct.std::__cxx11::basic_string<char>::_Alloc_hider", i64, %union.anon }
%"struct.std::__cxx11::basic_string<char>::_Alloc_hider" = type { ptr }
%union.anon = type { i64, [8 x i8] }
%"class.std::__shared_count" = type { ptr }
%"class.std::__shared_ptr.22" = type { ptr, %"class.std::__shared_count" }
%"class.OpenColorIO_v2_4dev::XmlReaderElement" = type { ptr, %"class.std::__cxx11::basic_string", i32, %"class.std::__cxx11::basic_string" }

; Function Attrs: mustprogress nounwind uwtable
define linkonce_odr hidden noundef ptr @_ZNKSt12__shared_ptrIN19OpenColorIO_v2_4dev16XmlReaderElementELN9__gnu_cxx12_Lock_policyE2EE3getEv(ptr noundef nonnull align 8 dereferenceable(16) %this) #4 comdat align 2 {
entry:
  %this.addr = alloca ptr, align 8
  store ptr %this, ptr %this.addr, align 8
  %this1 = load ptr, ptr %this.addr, align 8
  %_M_ptr = getelementptr inbounds %"class.std::__shared_ptr.22", ptr %this1, i32 0, i32 0
  %0 = load ptr, ptr %_M_ptr, align 8
  ret ptr %0
}

; Function Attrs: mustprogress nounwind uwtable
define linkonce_odr hidden noundef ptr @_ZNKSt19__shared_ptr_accessIN19OpenColorIO_v2_4dev16XmlReaderElementELN9__gnu_cxx12_Lock_policyE2ELb0ELb0EE6_M_getEv(ptr noundef nonnull align 1 dereferenceable(1) %this) #4 comdat align 2 {
entry:
  %this.addr = alloca ptr, align 8
  store ptr %this, ptr %this.addr, align 8
  %this1 = load ptr, ptr %this.addr, align 8
  %call = call noundef ptr @_ZNKSt12__shared_ptrIN19OpenColorIO_v2_4dev16XmlReaderElementELN9__gnu_cxx12_Lock_policyE2EE3getEv(ptr noundef nonnull align 8 dereferenceable(16) %this1) #3
  ret ptr %call
}

; Function Attrs: mustprogress nounwind uwtable
define linkonce_odr hidden noundef nonnull align 8 dereferenceable(32) ptr @_ZNK19OpenColorIO_v2_4dev16XmlReaderElement7getNameB5cxx11Ev(ptr noundef nonnull align 8 dereferenceable(80) %this) #4 comdat align 2 {
entry:
  %this.addr = alloca ptr, align 8
  store ptr %this, ptr %this.addr, align 8
  %this1 = load ptr, ptr %this.addr, align 8
  %m_name = getelementptr inbounds %"class.OpenColorIO_v2_4dev::XmlReaderElement", ptr %this1, i32 0, i32 1
  ret ptr %m_name
}

; Function Attrs: mustprogress nounwind uwtable
define linkonce_odr hidden noundef ptr @_ZNKSt19__shared_ptr_accessIN19OpenColorIO_v2_4dev16XmlReaderElementELN9__gnu_cxx12_Lock_policyE2ELb0ELb0EEptEv(ptr noundef nonnull align 1 dereferenceable(1) %this) #4 comdat align 2 {
entry:
  %this.addr = alloca ptr, align 8
  store ptr %this, ptr %this.addr, align 8
  %this1 = load ptr, ptr %this.addr, align 8
  %call = call noundef ptr @_ZNKSt19__shared_ptr_accessIN19OpenColorIO_v2_4dev16XmlReaderElementELN9__gnu_cxx12_Lock_policyE2ELb0ELb0EE6_M_getEv(ptr noundef nonnull align 1 dereferenceable(1) %this1) #3
  ret ptr %call
}

; Function Attrs: mustprogress nounwind uwtable
define linkonce_odr hidden noundef zeroext i1 @_ZNKSt12__shared_ptrIN19OpenColorIO_v2_4dev16XmlReaderElementELN9__gnu_cxx12_Lock_policyE2EEcvbEv(ptr noundef nonnull align 8 dereferenceable(16) %this) #4 comdat align 2 {
entry:
  %this.addr = alloca ptr, align 8
  store ptr %this, ptr %this.addr, align 8
  %this1 = load ptr, ptr %this.addr, align 8
  %_M_ptr = getelementptr inbounds %"class.std::__shared_ptr.22", ptr %this1, i32 0, i32 0
  %0 = load ptr, ptr %_M_ptr, align 8
  %cmp = icmp ne ptr %0, null
  ret i1 %cmp
}

; Function Attrs: mustprogress nounwind uwtable
define linkonce_odr hidden noundef nonnull align 8 dereferenceable(8) ptr @_ZNKSt6vectorIPKcSaIS1_EEixEm(ptr noundef nonnull align 8 dereferenceable(24) %this, i64 noundef %__n) #4 comdat align 2 {
entry:
  %this.addr = alloca ptr, align 8
  %__n.addr = alloca i64, align 8
  store ptr %this, ptr %this.addr, align 8
  store i64 %__n, ptr %__n.addr, align 8
  %this1 = load ptr, ptr %this.addr, align 8
  %_M_impl = getelementptr inbounds %"struct.std::_Vector_base.17", ptr %this1, i32 0, i32 0
  %_M_start = getelementptr inbounds %"struct.std::_Vector_base<const char *, std::allocator<const char *>>::_Vector_impl_data", ptr %_M_impl, i32 0, i32 0
  %0 = load ptr, ptr %_M_start, align 8
  %1 = load i64, ptr %__n.addr, align 8
  %add.ptr = getelementptr inbounds ptr, ptr %0, i64 %1
  ret ptr %add.ptr
}

; Function Attrs: mustprogress nounwind uwtable
define linkonce_odr hidden noundef i64 @_ZNKSt6vectorIPKcSaIS1_EE4sizeEv(ptr noundef nonnull align 8 dereferenceable(24) %this) #4 comdat align 2 {
entry:
  %this.addr = alloca ptr, align 8
  store ptr %this, ptr %this.addr, align 8
  %this1 = load ptr, ptr %this.addr, align 8
  %_M_impl = getelementptr inbounds %"struct.std::_Vector_base.17", ptr %this1, i32 0, i32 0
  %_M_finish = getelementptr inbounds %"struct.std::_Vector_base<const char *, std::allocator<const char *>>::_Vector_impl_data", ptr %_M_impl, i32 0, i32 1
  %0 = load ptr, ptr %_M_finish, align 8
  %_M_impl2 = getelementptr inbounds %"struct.std::_Vector_base.17", ptr %this1, i32 0, i32 0
  %_M_start = getelementptr inbounds %"struct.std::_Vector_base<const char *, std::allocator<const char *>>::_Vector_impl_data", ptr %_M_impl2, i32 0, i32 0
  %1 = load ptr, ptr %_M_start, align 8
  %sub.ptr.lhs.cast = ptrtoint ptr %0 to i64
  %sub.ptr.rhs.cast = ptrtoint ptr %1 to i64
  %sub.ptr.sub = sub i64 %sub.ptr.lhs.cast, %sub.ptr.rhs.cast
  %sub.ptr.div = sdiv exact i64 %sub.ptr.sub, 8
  ret i64 %sub.ptr.div
}

; Function Attrs: mustprogress uwtable
define internal noundef zeroext i1 @_ZN19OpenColorIO_v2_4dev12_GLOBAL__N_115XMLParserHelper16SupportedElementEPKcRSt10shared_ptrINS_16XmlReaderElementEERKSt6vectorIS3_SaIS3_EES3_Rb(ptr noundef %name, ptr noundef nonnull align 8 dereferenceable(16) %parent, ptr noundef nonnull align 8 dereferenceable(24) %tags, ptr noundef %parentName, ptr noundef nonnull align 1 dereferenceable(1) %recognizedName) #5 align 2 {
entry:
  %retval = alloca i1, align 1
  %name.addr = alloca ptr, align 8
  %parent.addr = alloca ptr, align 8
  %tags.addr = alloca ptr, align 8
  %parentName.addr = alloca ptr, align 8
  %recognizedName.addr = alloca ptr, align 8
  %numTags = alloca i64, align 8
  %i = alloca i64, align 8
  store ptr %name, ptr %name.addr, align 8
  store ptr %parent, ptr %parent.addr, align 8
  store ptr %tags, ptr %tags.addr, align 8
  store ptr %parentName, ptr %parentName.addr, align 8
  store ptr %recognizedName, ptr %recognizedName.addr, align 8
  %0 = load ptr, ptr %name.addr, align 8
  %tobool = icmp ne ptr %0, null
  br i1 %tobool, label %land.lhs.true, label %if.end24

land.lhs.true:                                    ; preds = %entry
  %1 = load ptr, ptr %name.addr, align 8
  %2 = load i8, ptr %1, align 1
  %tobool1 = icmp ne i8 %2, 0
  br i1 %tobool1, label %if.then, label %if.end24

if.then:                                          ; preds = %land.lhs.true
  %3 = load ptr, ptr %tags.addr, align 8
  %call = call noundef i64 @_ZNKSt6vectorIPKcSaIS1_EE4sizeEv(ptr noundef nonnull align 8 dereferenceable(24) %3) #3
  store i64 %call, ptr %numTags, align 8
  store i64 0, ptr %i, align 8
  br label %for.cond

for.cond:                                         ; preds = %for.inc, %if.then
  %4 = load i64, ptr %i, align 8
  %5 = load i64, ptr %numTags, align 8
  %cmp = icmp ult i64 %4, %5
  br i1 %cmp, label %for.body, label %for.end

for.body:                                         ; preds = %for.cond
  %6 = load ptr, ptr %name.addr, align 8
  %7 = load ptr, ptr %tags.addr, align 8
  %8 = load i64, ptr %i, align 8
  %call2 = call noundef nonnull align 8 dereferenceable(8) ptr @_ZNKSt6vectorIPKcSaIS1_EEixEm(ptr noundef nonnull align 8 dereferenceable(24) %7, i64 noundef %8) #3
  %9 = load ptr, ptr %call2, align 8
  %call3 = call noundef i32 @_ZN19OpenColorIO_v2_4dev8Platform10StrcasecmpEPKcS2_(ptr noundef %6, ptr noundef %9)
  %cmp4 = icmp eq i32 0, %call3
  br i1 %cmp4, label %if.then5, label %if.end

if.then5:                                         ; preds = %for.body
  %10 = load ptr, ptr %recognizedName.addr, align 8
  %11 = load i8, ptr %10, align 1
  %tobool6 = trunc i8 %11 to i1
  %conv = zext i1 %tobool6 to i32
  %or = or i32 %conv, 1
  %tobool7 = icmp ne i32 %or, 0
  %frombool = zext i1 %tobool7 to i8
  store i8 %frombool, ptr %10, align 1
  br label %for.end

if.end:                                           ; preds = %for.body
  br label %for.inc

for.inc:                                          ; preds = %if.end
  %12 = load i64, ptr %i, align 8
  %inc = add i64 %12, 1
  store i64 %inc, ptr %i, align 8
  br label %for.cond, !llvm.loop !11

for.end:                                          ; preds = %if.then5, %for.cond
  %13 = load i64, ptr %i, align 8
  %14 = load i64, ptr %numTags, align 8
  %cmp8 = icmp ult i64 %13, %14
  br i1 %cmp8, label %if.then9, label %if.end23

if.then9:                                         ; preds = %for.end
  %15 = load ptr, ptr %parentName.addr, align 8
  %tobool10 = icmp ne ptr %15, null
  br i1 %tobool10, label %lor.lhs.false, label %if.then21

lor.lhs.false:                                    ; preds = %if.then9
  %16 = load ptr, ptr %parentName.addr, align 8
  %call11 = call i64 @strlen(ptr noundef %16) #13
  %tobool12 = icmp ne i64 %call11, 0
  br i1 %tobool12, label %lor.lhs.false13, label %if.then21

lor.lhs.false13:                                  ; preds = %lor.lhs.false
  %17 = load ptr, ptr %parent.addr, align 8
  %call14 = call noundef zeroext i1 @_ZNKSt12__shared_ptrIN19OpenColorIO_v2_4dev16XmlReaderElementELN9__gnu_cxx12_Lock_policyE2EEcvbEv(ptr noundef nonnull align 8 dereferenceable(16) %17) #3
  br i1 %call14, label %land.lhs.true15, label %if.end22

land.lhs.true15:                                  ; preds = %lor.lhs.false13
  %18 = load ptr, ptr %parent.addr, align 8
  %call16 = call noundef ptr @_ZNKSt19__shared_ptr_accessIN19OpenColorIO_v2_4dev16XmlReaderElementELN9__gnu_cxx12_Lock_policyE2ELb0ELb0EEptEv(ptr noundef nonnull align 1 dereferenceable(1) %18) #3
  %call17 = call noundef nonnull align 8 dereferenceable(32) ptr @_ZNK19OpenColorIO_v2_4dev16XmlReaderElement7getNameB5cxx11Ev(ptr noundef nonnull align 8 dereferenceable(80) %call16)
  %call18 = call noundef ptr @_ZNKSt7__cxx1112basic_stringIcSt11char_traitsIcESaIcEE5c_strEv(ptr noundef nonnull align 8 dereferenceable(32) %call17) #3
  %19 = load ptr, ptr %parentName.addr, align 8
  %call19 = call noundef i32 @_ZN19OpenColorIO_v2_4dev8Platform10StrcasecmpEPKcS2_(ptr noundef %call18, ptr noundef %19)
  %cmp20 = icmp eq i32 0, %call19
  br i1 %cmp20, label %if.then21, label %if.end22

if.then21:                                        ; preds = %land.lhs.true15, %lor.lhs.false, %if.then9
  store i1 true, ptr %retval, align 1
  br label %return

if.end22:                                         ; preds = %land.lhs.true15, %lor.lhs.false13
  br label %if.end23

if.end23:                                         ; preds = %if.end22, %for.end
  br label %if.end24

if.end24:                                         ; preds = %if.end23, %land.lhs.true, %entry
  store i1 false, ptr %retval, align 1
  br label %return

return:                                           ; preds = %if.end24, %if.then21
  %20 = load i1, ptr %retval, align 1
  ret i1 %20
}