; Function Attrs: mustprogress uwtable
define internal fastcc noundef zeroext i1 @_ZN19OpenColorIO_v2_4dev12_GLOBAL__N_115XMLParserHelper16SupportedElementEPKcRSt10shared_ptrINS_16XmlReaderElementEERKSt6vectorIS3_SaIS3_EES3_Rb(ptr noundef %name, ptr nocapture noundef nonnull readonly align 8 dereferenceable(16) %parent, ptr nocapture noundef nonnull readonly align 8 dereferenceable(24) %tags, ptr noundef %parentName, ptr nocapture noundef nonnull writeonly align 1 dereferenceable(1) %recognizedName) unnamed_addr #4 align 2 {
entry:
  %tobool.not = icmp eq ptr %name, null
  br i1 %tobool.not, label %if.end24, label %land.lhs.true

land.lhs.true:                                    ; preds = %entry
  %0 = load i8, ptr %name, align 1
  %tobool1.not = icmp eq i8 %0, 0
  br i1 %tobool1.not, label %if.end24, label %if.then

if.then:                                          ; preds = %land.lhs.true
  %_M_finish.i = getelementptr inbounds i8, ptr %tags, i64 8
  %1 = load ptr, ptr %_M_finish.i, align 8
  %2 = load ptr, ptr %tags, align 8
  %cmp11.not = icmp eq ptr %1, %2
  br i1 %cmp11.not, label %if.end24, label %for.body.preheader

for.body.preheader:                               ; preds = %if.then
  %sub.ptr.lhs.cast.i = ptrtoint ptr %1 to i64
  %sub.ptr.rhs.cast.i = ptrtoint ptr %2 to i64
  %sub.ptr.sub.i = sub i64 %sub.ptr.lhs.cast.i, %sub.ptr.rhs.cast.i
  %sub.ptr.div.i = ashr exact i64 %sub.ptr.sub.i, 3
  %umax = tail call i64 @llvm.umax.i64(i64 %sub.ptr.div.i, i64 1)
  br label %for.body

for.cond:                                         ; preds = %for.body
  %inc = add nuw i64 %i.012, 1
  %exitcond.not = icmp eq i64 %inc, %umax
  br i1 %exitcond.not, label %if.end24, label %for.body, !llvm.loop !82

for.body:                                         ; preds = %for.body.preheader, %for.cond
  %i.012 = phi i64 [ %inc, %for.cond ], [ 0, %for.body.preheader ]
  %3 = load ptr, ptr %tags, align 8
  %add.ptr.i = getelementptr inbounds ptr, ptr %3, i64 %i.012
  %4 = load ptr, ptr %add.ptr.i, align 8
  %call3 = tail call noundef i32 @_ZN19OpenColorIO_v2_4dev8Platform10StrcasecmpEPKcS2_(ptr noundef nonnull %name, ptr noundef %4)
  %cmp4 = icmp eq i32 %call3, 0
  br i1 %cmp4, label %if.then9, label %for.cond

if.then9:                                         ; preds = %for.body
  store i8 1, ptr %recognizedName, align 1
  %tobool10.not = icmp eq ptr %parentName, null
  br i1 %tobool10.not, label %return, label %lor.lhs.false

lor.lhs.false:                                    ; preds = %if.then9
  %char0 = load i8, ptr %parentName, align 1
  %tobool12.not = icmp eq i8 %char0, 0
  br i1 %tobool12.not, label %return, label %lor.lhs.false13

lor.lhs.false13:                                  ; preds = %lor.lhs.false
  %5 = load ptr, ptr %parent, align 8
  %cmp.i.not = icmp eq ptr %5, null
  br i1 %cmp.i.not, label %if.end24, label %land.lhs.true15

land.lhs.true15:                                  ; preds = %lor.lhs.false13
  %m_name.i = getelementptr inbounds i8, ptr %5, i64 8
  %call18 = tail call noundef ptr @_ZNKSt7__cxx1112basic_stringIcSt11char_traitsIcESaIcEE5c_strEv(ptr noundef nonnull align 8 dereferenceable(32) %m_name.i) #20
  %call19 = tail call noundef i32 @_ZN19OpenColorIO_v2_4dev8Platform10StrcasecmpEPKcS2_(ptr noundef %call18, ptr noundef nonnull %parentName)
  %cmp20 = icmp eq i32 %call19, 0
  br i1 %cmp20, label %return, label %if.end24

if.end24:                                         ; preds = %for.cond, %if.then, %land.lhs.true15, %lor.lhs.false13, %land.lhs.true, %entry
  br label %return

return:                                           ; preds = %if.then9, %lor.lhs.false, %land.lhs.true15, %if.end24
  %retval.0 = phi i1 [ false, %if.end24 ], [ true, %land.lhs.true15 ], [ true, %lor.lhs.false ], [ true, %if.then9 ]
  ret i1 %retval.0
}